; Function Attrs: null_pointer_is_valid sspstrong uwtable
define internal fastcc void @dissect_transport_info_response(ptr noundef %0, ptr noundef %1, i32 noundef %2) unnamed_addr #0 {
  %4 = load i32, ptr @hf_msmms_command_prefix1_command_level, align 4
  %5 = tail call ptr @proto_tree_add_item(ptr noundef %1, i32 noundef %4, ptr noundef %0, i32 noundef 40, i32 noundef 4, i32 noundef -2147483648)
  %6 = load i32, ptr @hf_msmms_command_prefix2, align 4
  %7 = tail call ptr @proto_tree_add_item(ptr noundef %1, i32 noundef %6, ptr noundef %0, i32 noundef 44, i32 noundef 4, i32 noundef -2147483648)
  %8 = load i32, ptr @hf_msmms_command_number_of_words, align 4
  %9 = tail call ptr @proto_tree_add_item(ptr noundef %1, i32 noundef %8, ptr noundef %0, i32 noundef 48, i32 noundef 4, i32 noundef -2147483648)
  %10 = load i32, ptr @hf_msmms_command_strange_string, align 4
  %11 = add i32 %2, -12
  %12 = tail call ptr @proto_tree_add_item(ptr noundef %1, i32 noundef %10, ptr noundef %0, i32 noundef 52, i32 noundef %11, i32 noundef -2147483644)
  ret void
}